target datalayout = "e-m:e-p270:32:32-p271:32:32-p272:64:64-i64:64-i128:128-f80:128-n8:16:32:64-S128"
target triple = "x86_64-pc-linux-gnu"

%struct.bitmap_writer = type { ptr, ptr, ptr, ptr, ptr, ptr, ptr, i32, i32, %struct.string_list, ptr, i32, ptr, i32, [32 x i8] }
%struct.string_list = type { ptr, i64, i64, i8, ptr }
%struct.kh_oid_map = type { i32, i32, i32, i32, ptr, ptr, ptr }
%struct.bitmapped_commit = type { ptr, ptr, ptr, i32, i32, i32, i8 }
%struct.pseudo_merge_commit_idx = type { ptr, i64, i64 }

; Function Attrs: inlinehint nounwind uwtable
define internal void @kh_release_oid_map(ptr noundef %0) #3 {
  %2 = alloca ptr, align 8
  store ptr %0, ptr %2, align 8, !tbaa !49
  %3 = load ptr, ptr %2, align 8, !tbaa !49
  %4 = getelementptr inbounds nuw %struct.kh_oid_map, ptr %3, i32 0, i32 4
  %5 = load ptr, ptr %4, align 8, !tbaa !34
  call void @free(ptr noundef %5) #12
  %6 = load ptr, ptr %2, align 8, !tbaa !49
  %7 = getelementptr inbounds nuw %struct.kh_oid_map, ptr %6, i32 0, i32 5
  %8 = load ptr, ptr %7, align 8, !tbaa !73
  call void @free(ptr noundef %8) #12
  %9 = load ptr, ptr %2, align 8, !tbaa !49
  %10 = getelementptr inbounds nuw %struct.kh_oid_map, ptr %9, i32 0, i32 6
  %11 = load ptr, ptr %10, align 8, !tbaa !35
  call void @free(ptr noundef %11) #12
  ret void
}

; Function Attrs: nounwind uwtable
define internal void @free_pseudo_merge_commit_idx(ptr noundef %0) #0 {
  %2 = alloca ptr, align 8
  store ptr %0, ptr %2, align 8, !tbaa !37
  %3 = load ptr, ptr %2, align 8, !tbaa !37
  %4 = icmp ne ptr %3, null
  br i1 %4, label %6, label %5

5:                                                ; preds = %1
  br label %11

6:                                                ; preds = %1
  %7 = load ptr, ptr %2, align 8, !tbaa !37
  %8 = getelementptr inbounds nuw %struct.pseudo_merge_commit_idx, ptr %7, i32 0, i32 0
  %9 = load ptr, ptr %8, align 8, !tbaa !50
  call void @free(ptr noundef %9) #12
  %10 = load ptr, ptr %2, align 8, !tbaa !37
  call void @free(ptr noundef %10) #12
  br label %11

11:                                               ; preds = %6, %5
  ret void
}

; Function Attrs: inlinehint nounwind uwtable
define internal void @kh_destroy_oid_map(ptr noundef %0) #3 {
  %2 = alloca ptr, align 8
  store ptr %0, ptr %2, align 8, !tbaa !49
  %3 = load ptr, ptr %2, align 8, !tbaa !49
  %4 = icmp ne ptr %3, null
  br i1 %4, label %5, label %8

5:                                                ; preds = %1
  %6 = load ptr, ptr %2, align 8, !tbaa !49
  call void @kh_release_oid_map(ptr noundef %6)
  %7 = load ptr, ptr %2, align 8, !tbaa !49
  call void @free(ptr noundef %7) #12
  br label %8

8:                                                ; preds = %5, %1
  ret void
}

; Function Attrs: nounwind uwtable
define dso_local void @bitmap_writer_free(ptr noundef %0) #0 {
  %2 = alloca ptr, align 8
  %3 = alloca i32, align 4
  %4 = alloca ptr, align 8
  %5 = alloca i32, align 4
  %6 = alloca i32, align 4
  %7 = alloca ptr, align 8
  store ptr %0, ptr %2, align 8, !tbaa !4
  call void @llvm.lifetime.start.p0(i64 4, ptr %3) #12
  call void @llvm.lifetime.start.p0(i64 8, ptr %4) #12
  %8 = load ptr, ptr %2, align 8, !tbaa !4
  %9 = icmp ne ptr %8, null
  br i1 %9, label %11, label %10

10:                                               ; preds = %1
  store i32 1, ptr %5, align 4
  br label %108

11:                                               ; preds = %1
  %12 = load ptr, ptr %2, align 8, !tbaa !4
  %13 = getelementptr inbounds nuw %struct.bitmap_writer, ptr %12, i32 0, i32 0
  %14 = load ptr, ptr %13, align 8, !tbaa !25
  call void @ewah_free(ptr noundef %14)
  %15 = load ptr, ptr %2, align 8, !tbaa !4
  %16 = getelementptr inbounds nuw %struct.bitmap_writer, ptr %15, i32 0, i32 1
  %17 = load ptr, ptr %16, align 8, !tbaa !26
  call void @ewah_free(ptr noundef %17)
  %18 = load ptr, ptr %2, align 8, !tbaa !4
  %19 = getelementptr inbounds nuw %struct.bitmap_writer, ptr %18, i32 0, i32 2
  %20 = load ptr, ptr %19, align 8, !tbaa !27
  call void @ewah_free(ptr noundef %20)
  %21 = load ptr, ptr %2, align 8, !tbaa !4
  %22 = getelementptr inbounds nuw %struct.bitmap_writer, ptr %21, i32 0, i32 3
  %23 = load ptr, ptr %22, align 8, !tbaa !28
  call void @ewah_free(ptr noundef %23)
  %24 = load ptr, ptr %2, align 8, !tbaa !4
  %25 = getelementptr inbounds nuw %struct.bitmap_writer, ptr %24, i32 0, i32 4
  %26 = load ptr, ptr %25, align 8, !tbaa !13
  call void @kh_destroy_oid_map(ptr noundef %26)
  call void @llvm.lifetime.start.p0(i64 4, ptr %6) #12
  store i32 0, ptr %6, align 4, !tbaa !29
  br label %27

27:                                               ; preds = %64, %11
  %28 = load i32, ptr %6, align 4, !tbaa !29
  %29 = load ptr, ptr %2, align 8, !tbaa !4
  %30 = getelementptr inbounds nuw %struct.bitmap_writer, ptr %29, i32 0, i32 10
  %31 = load ptr, ptr %30, align 8, !tbaa !23
  %32 = getelementptr inbounds nuw %struct.kh_oid_map, ptr %31, i32 0, i32 0
  %33 = load i32, ptr %32, align 8, !tbaa !30
  %34 = icmp ne i32 %28, %33
  br i1 %34, label %35, label %67

35:                                               ; preds = %27
  %36 = load ptr, ptr %2, align 8, !tbaa !4
  %37 = getelementptr inbounds nuw %struct.bitmap_writer, ptr %36, i32 0, i32 10
  %38 = load ptr, ptr %37, align 8, !tbaa !23
  %39 = getelementptr inbounds nuw %struct.kh_oid_map, ptr %38, i32 0, i32 4
  %40 = load ptr, ptr %39, align 8, !tbaa !34
  %41 = load i32, ptr %6, align 4, !tbaa !29
  %42 = lshr i32 %41, 4
  %43 = zext i32 %42 to i64
  %44 = getelementptr inbounds nuw i32, ptr %40, i64 %43
  %45 = load i32, ptr %44, align 4, !tbaa !29
  %46 = load i32, ptr %6, align 4, !tbaa !29
  %47 = and i32 %46, 15
  %48 = shl i32 %47, 1
  %49 = lshr i32 %45, %48
  %50 = and i32 %49, 3
  %51 = icmp ne i32 %50, 0
  br i1 %51, label %52, label %53

52:                                               ; preds = %35
  br label %64

53:                                               ; preds = %35
  %54 = load ptr, ptr %2, align 8, !tbaa !4
  %55 = getelementptr inbounds nuw %struct.bitmap_writer, ptr %54, i32 0, i32 10
  %56 = load ptr, ptr %55, align 8, !tbaa !23
  %57 = getelementptr inbounds nuw %struct.kh_oid_map, ptr %56, i32 0, i32 6
  %58 = load ptr, ptr %57, align 8, !tbaa !35
  %59 = load i32, ptr %6, align 4, !tbaa !29
  %60 = zext i32 %59 to i64
  %61 = getelementptr inbounds nuw ptr, ptr %58, i64 %60
  %62 = load ptr, ptr %61, align 8, !tbaa !36
  store ptr %62, ptr %4, align 8, !tbaa !37
  %63 = load ptr, ptr %4, align 8, !tbaa !37
  call void @free_pseudo_merge_commit_idx(ptr noundef %63)
  br label %64

64:                                               ; preds = %53, %52
  %65 = load i32, ptr %6, align 4, !tbaa !29
  %66 = add i32 %65, 1
  store i32 %66, ptr %6, align 4, !tbaa !29
  br label %27, !llvm.loop !39

67:                                               ; preds = %27
  call void @llvm.lifetime.end.p0(i64 4, ptr %6) #12
  %68 = load ptr, ptr %2, align 8, !tbaa !4
  %69 = getelementptr inbounds nuw %struct.bitmap_writer, ptr %68, i32 0, i32 10
  %70 = load ptr, ptr %69, align 8, !tbaa !23
  call void @kh_destroy_oid_map(ptr noundef %70)
  %71 = load ptr, ptr %2, align 8, !tbaa !4
  %72 = getelementptr inbounds nuw %struct.bitmap_writer, ptr %71, i32 0, i32 9
  call void @string_list_clear_func(ptr noundef %72, ptr noundef @pseudo_merge_group_release_cb)
  store i32 0, ptr %3, align 4, !tbaa !29
  br label %73

73:                                               ; preds = %101, %67
  %74 = load i32, ptr %3, align 4, !tbaa !29
  %75 = load ptr, ptr %2, align 8, !tbaa !4
  %76 = getelementptr inbounds nuw %struct.bitmap_writer, ptr %75, i32 0, i32 7
  %77 = load i32, ptr %76, align 8, !tbaa !41
  %78 = icmp ult i32 %74, %77
  br i1 %78, label %79, label %104

79:                                               ; preds = %73
  call void @llvm.lifetime.start.p0(i64 8, ptr %7) #12
  %80 = load ptr, ptr %2, align 8, !tbaa !4
  %81 = getelementptr inbounds nuw %struct.bitmap_writer, ptr %80, i32 0, i32 6
  %82 = load ptr, ptr %81, align 8, !tbaa !42
  %83 = load i32, ptr %3, align 4, !tbaa !29
  %84 = zext i32 %83 to i64
  %85 = getelementptr inbounds nuw %struct.bitmapped_commit, ptr %82, i64 %84
  store ptr %85, ptr %7, align 8, !tbaa !43
  %86 = load ptr, ptr %7, align 8, !tbaa !43
  %87 = getelementptr inbounds nuw %struct.bitmapped_commit, ptr %86, i32 0, i32 2
  %88 = load ptr, ptr %87, align 8, !tbaa !44
  %89 = load ptr, ptr %7, align 8, !tbaa !43
  %90 = getelementptr inbounds nuw %struct.bitmapped_commit, ptr %89, i32 0, i32 1
  %91 = load ptr, ptr %90, align 8, !tbaa !47
  %92 = icmp ne ptr %88, %91
  br i1 %92, label %93, label %97

93:                                               ; preds = %79
  %94 = load ptr, ptr %7, align 8, !tbaa !43
  %95 = getelementptr inbounds nuw %struct.bitmapped_commit, ptr %94, i32 0, i32 2
  %96 = load ptr, ptr %95, align 8, !tbaa !44
  call void @ewah_free(ptr noundef %96)
  br label %97

97:                                               ; preds = %93, %79
  %98 = load ptr, ptr %7, align 8, !tbaa !43
  %99 = getelementptr inbounds nuw %struct.bitmapped_commit, ptr %98, i32 0, i32 1
  %100 = load ptr, ptr %99, align 8, !tbaa !47
  call void @ewah_free(ptr noundef %100)
  call void @llvm.lifetime.end.p0(i64 8, ptr %7) #12
  br label %101

101:                                              ; preds = %97
  %102 = load i32, ptr %3, align 4, !tbaa !29
  %103 = add i32 %102, 1
  store i32 %103, ptr %3, align 4, !tbaa !29
  br label %73, !llvm.loop !48

104:                                              ; preds = %73
  %105 = load ptr, ptr %2, align 8, !tbaa !4
  %106 = getelementptr inbounds nuw %struct.bitmap_writer, ptr %105, i32 0, i32 6
  %107 = load ptr, ptr %106, align 8, !tbaa !42
  call void @free(ptr noundef %107) #12
  store i32 0, ptr %5, align 4
  br label %108

108:                                              ; preds = %104, %10
  call void @llvm.lifetime.end.p0(i64 8, ptr %4) #12
  call void @llvm.lifetime.end.p0(i64 4, ptr %3) #12
  %109 = load i32, ptr %5, align 4
  switch i32 %109, label %111 [
    i32 0, label %110
    i32 1, label %110
  ]

110:                                              ; preds = %108, %108
  ret void

111:                                              ; preds = %108
  unreachable
}