; Function Attrs: nounwind uwtable
define dso_local void @bitmap_writer_free(ptr noundef %0) local_unnamed_addr #0 {
  %.not = icmp eq ptr %0, null
  br i1 %.not, label %70, label %2

2:                                                ; preds = %1
  %3 = load ptr, ptr %0, align 8, !tbaa !20
  tail call void @ewah_free(ptr noundef %3) #19
  %4 = getelementptr inbounds nuw i8, ptr %0, i64 8
  %5 = load ptr, ptr %4, align 8, !tbaa !21
  tail call void @ewah_free(ptr noundef %5) #19
  %6 = getelementptr inbounds nuw i8, ptr %0, i64 16
  %7 = load ptr, ptr %6, align 8, !tbaa !22
  tail call void @ewah_free(ptr noundef %7) #19
  %8 = getelementptr inbounds nuw i8, ptr %0, i64 24
  %9 = load ptr, ptr %8, align 8, !tbaa !23
  tail call void @ewah_free(ptr noundef %9) #19
  %10 = getelementptr inbounds nuw i8, ptr %0, i64 32
  %11 = load ptr, ptr %10, align 8, !tbaa !4
  %.not.i = icmp eq ptr %11, null
  br i1 %.not.i, label %kh_destroy_oid_map.exit, label %12

12:                                               ; preds = %2
  %13 = getelementptr inbounds nuw i8, ptr %11, i64 16
  %14 = load ptr, ptr %13, align 8, !tbaa !24
  tail call void @free(ptr noundef %14) #19
  %15 = getelementptr inbounds nuw i8, ptr %11, i64 24
  %16 = load ptr, ptr %15, align 8, !tbaa !28
  tail call void @free(ptr noundef %16) #19
  %17 = getelementptr inbounds nuw i8, ptr %11, i64 32
  %18 = load ptr, ptr %17, align 8, !tbaa !29
  tail call void @free(ptr noundef %18) #19
  tail call void @free(ptr noundef nonnull %11) #19
  br label %kh_destroy_oid_map.exit

kh_destroy_oid_map.exit:                          ; preds = %2, %12
  %19 = getelementptr inbounds nuw i8, ptr %0, i64 104
  %20 = load ptr, ptr %19, align 8, !tbaa !18
  %21 = load i32, ptr %20, align 8, !tbaa !30
  %.not2935 = icmp eq i32 %21, 0
  br i1 %.not2935, label %kh_destroy_oid_map.exit34, label %.lr.ph

.lr.ph:                                           ; preds = %kh_destroy_oid_map.exit, %free_pseudo_merge_commit_idx.exit
  %22 = phi i32 [ %42, %free_pseudo_merge_commit_idx.exit ], [ %21, %kh_destroy_oid_map.exit ]
  %23 = phi ptr [ %43, %free_pseudo_merge_commit_idx.exit ], [ %20, %kh_destroy_oid_map.exit ]
  %.02636 = phi i32 [ %44, %free_pseudo_merge_commit_idx.exit ], [ 0, %kh_destroy_oid_map.exit ]
  %24 = getelementptr inbounds nuw i8, ptr %23, i64 16
  %25 = load ptr, ptr %24, align 8, !tbaa !24
  %26 = lshr i32 %.02636, 4
  %27 = zext nneg i32 %26 to i64
  %28 = getelementptr inbounds nuw i32, ptr %25, i64 %27
  %29 = load i32, ptr %28, align 4, !tbaa !31
  %30 = shl i32 %.02636, 1
  %31 = and i32 %30, 30
  %32 = shl nuw i32 3, %31
  %33 = and i32 %29, %32
  %.not31 = icmp eq i32 %33, 0
  br i1 %.not31, label %34, label %free_pseudo_merge_commit_idx.exit

34:                                               ; preds = %.lr.ph
  %35 = getelementptr inbounds nuw i8, ptr %23, i64 32
  %36 = load ptr, ptr %35, align 8, !tbaa !29
  %37 = zext i32 %.02636 to i64
  %38 = getelementptr inbounds nuw ptr, ptr %36, i64 %37
  %39 = load ptr, ptr %38, align 8, !tbaa !32
  %.not.i32 = icmp eq ptr %39, null
  br i1 %.not.i32, label %free_pseudo_merge_commit_idx.exit, label %40

40:                                               ; preds = %34
  %41 = load ptr, ptr %39, align 8, !tbaa !33
  tail call void @free(ptr noundef %41) #19
  tail call void @free(ptr noundef nonnull %39) #19
  %.pre = load ptr, ptr %19, align 8, !tbaa !18
  %.pre42 = load i32, ptr %.pre, align 8, !tbaa !30
  br label %free_pseudo_merge_commit_idx.exit

free_pseudo_merge_commit_idx.exit:                ; preds = %40, %34, %.lr.ph
  %42 = phi i32 [ %.pre42, %40 ], [ %22, %34 ], [ %22, %.lr.ph ]
  %43 = phi ptr [ %.pre, %40 ], [ %23, %34 ], [ %23, %.lr.ph ]
  %44 = add i32 %.02636, 1
  %.not29 = icmp eq i32 %44, %42
  br i1 %.not29, label %kh_destroy_oid_map.exit34, label %.lr.ph, !llvm.loop !35

kh_destroy_oid_map.exit34:                        ; preds = %free_pseudo_merge_commit_idx.exit, %kh_destroy_oid_map.exit
  %.lcssa = phi ptr [ %20, %kh_destroy_oid_map.exit ], [ %43, %free_pseudo_merge_commit_idx.exit ]
  %45 = getelementptr inbounds nuw i8, ptr %.lcssa, i64 16
  %46 = load ptr, ptr %45, align 8, !tbaa !24
  tail call void @free(ptr noundef %46) #19
  %47 = getelementptr inbounds nuw i8, ptr %.lcssa, i64 24
  %48 = load ptr, ptr %47, align 8, !tbaa !28
  tail call void @free(ptr noundef %48) #19
  %49 = getelementptr inbounds nuw i8, ptr %.lcssa, i64 32
  %50 = load ptr, ptr %49, align 8, !tbaa !29
  tail call void @free(ptr noundef %50) #19
  tail call void @free(ptr noundef nonnull %.lcssa) #19
  %51 = getelementptr inbounds nuw i8, ptr %0, i64 64
  tail call void @string_list_clear_func(ptr noundef nonnull %51, ptr noundef nonnull @pseudo_merge_group_release_cb) #19
  %52 = getelementptr inbounds nuw i8, ptr %0, i64 56
  %53 = load i32, ptr %52, align 8, !tbaa !37
  %.not39 = icmp eq i32 %53, 0
  br i1 %.not39, label %._crit_edge, label %.lr.ph38

.lr.ph38:                                         ; preds = %kh_destroy_oid_map.exit34
  %54 = getelementptr inbounds nuw i8, ptr %0, i64 48
  br label %55

55:                                               ; preds = %.lr.ph38, %63
  %indvars.iv = phi i64 [ 0, %.lr.ph38 ], [ %indvars.iv.next, %63 ]
  %56 = load ptr, ptr %54, align 8, !tbaa !38
  %57 = getelementptr inbounds nuw %struct.bitmapped_commit, ptr %56, i64 %indvars.iv
  %58 = getelementptr inbounds nuw i8, ptr %57, i64 16
  %59 = load ptr, ptr %58, align 8, !tbaa !39
  %60 = getelementptr inbounds nuw i8, ptr %57, i64 8
  %61 = load ptr, ptr %60, align 8, !tbaa !42
  %.not30 = icmp eq ptr %59, %61
  br i1 %.not30, label %63, label %62

62:                                               ; preds = %55
  tail call void @ewah_free(ptr noundef %59) #19
  %.pre43 = load ptr, ptr %60, align 8, !tbaa !42
  br label %63

63:                                               ; preds = %62, %55
  %64 = phi ptr [ %.pre43, %62 ], [ %61, %55 ]
  tail call void @ewah_free(ptr noundef %64) #19
  %indvars.iv.next = add nuw nsw i64 %indvars.iv, 1
  %65 = load i32, ptr %52, align 8, !tbaa !37
  %66 = zext i32 %65 to i64
  %67 = icmp samesign ult i64 %indvars.iv.next, %66
  br i1 %67, label %55, label %._crit_edge, !llvm.loop !43

._crit_edge:                                      ; preds = %63, %kh_destroy_oid_map.exit34
  %68 = getelementptr inbounds nuw i8, ptr %0, i64 48
  %69 = load ptr, ptr %68, align 8, !tbaa !38
  tail call void @free(ptr noundef %69) #19
  br label %70

70:                                               ; preds = %1, %._crit_edge
  ret void
}